; Function Attrs: mustprogress uwtable
define dso_local noundef zeroext i1 @_ZN4Json9OurReader12decodeDoubleERNS0_5TokenE(ptr noundef nonnull align 8 dereferenceable(297) %0, ptr nocapture noundef nonnull readonly align 8 dereferenceable(24) %1) local_unnamed_addr #6 align 2 personality ptr @__gxx_personality_v0 {
  %3 = alloca %"class.Json::Value", align 8
  call void @_ZN4Json5ValueC1ENS_9ValueTypeE(ptr noundef nonnull align 8 dereferenceable(40) %3, i32 noundef 0)
  %4 = invoke noundef zeroext i1 @_ZN4Json9OurReader12decodeDoubleERNS0_5TokenERNS_5ValueE(ptr noundef nonnull align 8 dereferenceable(297) %0, ptr noundef nonnull align 8 dereferenceable(24) %1, ptr noundef nonnull align 8 dereferenceable(40) %3)
          to label %5 unwind label %6

5:                                                ; preds = %2
  br i1 %4, label %8, label %65

6:                                                ; preds = %55, %34, %20, %2
  %7 = landingpad { ptr, i32 }
          cleanup
  call void @_ZN4Json5ValueD1Ev(ptr noundef nonnull align 8 dereferenceable(40) %3) #25
  resume { ptr, i32 } %7

8:                                                ; preds = %5
  %9 = getelementptr inbounds i8, ptr %0, i64 48
  %10 = load ptr, ptr %9, align 8, !noalias !306
  %11 = getelementptr inbounds i8, ptr %0, i64 56
  %12 = load ptr, ptr %11, align 8, !noalias !306
  %13 = icmp eq ptr %10, %12
  br i1 %13, label %14, label %20

14:                                               ; preds = %8
  %15 = getelementptr inbounds i8, ptr %0, i64 72
  %16 = load ptr, ptr %15, align 8, !noalias !306
  %17 = getelementptr inbounds i8, ptr %16, i64 -8
  %18 = load ptr, ptr %17, align 8
  %19 = getelementptr inbounds i8, ptr %18, i64 512
  br label %20

20:                                               ; preds = %14, %8
  %21 = phi ptr [ %19, %14 ], [ %10, %8 ]
  %22 = getelementptr inbounds i8, ptr %21, i64 -8
  %23 = load ptr, ptr %22, align 8
  invoke void @_ZN4Json5Value11swapPayloadERS0_(ptr noundef nonnull align 8 dereferenceable(40) %23, ptr noundef nonnull align 8 dereferenceable(40) %3)
          to label %24 unwind label %6

24:                                               ; preds = %20
  %25 = load ptr, ptr %9, align 8, !noalias !309
  %26 = load ptr, ptr %11, align 8, !noalias !309
  %27 = icmp eq ptr %25, %26
  br i1 %27, label %28, label %34

28:                                               ; preds = %24
  %29 = getelementptr inbounds i8, ptr %0, i64 72
  %30 = load ptr, ptr %29, align 8, !noalias !309
  %31 = getelementptr inbounds i8, ptr %30, i64 -8
  %32 = load ptr, ptr %31, align 8
  %33 = getelementptr inbounds i8, ptr %32, i64 512
  br label %34

34:                                               ; preds = %28, %24
  %35 = phi ptr [ %33, %28 ], [ %25, %24 ]
  %36 = getelementptr inbounds i8, ptr %35, i64 -8
  %37 = load ptr, ptr %36, align 8
  %38 = getelementptr inbounds i8, ptr %1, i64 8
  %39 = load ptr, ptr %38, align 8
  %40 = getelementptr inbounds i8, ptr %0, i64 192
  %41 = load ptr, ptr %40, align 8
  %42 = ptrtoint ptr %39 to i64
  %43 = ptrtoint ptr %41 to i64
  %44 = sub i64 %42, %43
  invoke void @_ZN4Json5Value14setOffsetStartEl(ptr noundef nonnull align 8 dereferenceable(40) %37, i64 noundef %44)
          to label %45 unwind label %6

45:                                               ; preds = %34
  %46 = load ptr, ptr %9, align 8, !noalias !312
  %47 = load ptr, ptr %11, align 8, !noalias !312
  %48 = icmp eq ptr %46, %47
  br i1 %48, label %49, label %55

49:                                               ; preds = %45
  %50 = getelementptr inbounds i8, ptr %0, i64 72
  %51 = load ptr, ptr %50, align 8, !noalias !312
  %52 = getelementptr inbounds i8, ptr %51, i64 -8
  %53 = load ptr, ptr %52, align 8
  %54 = getelementptr inbounds i8, ptr %53, i64 512
  br label %55

55:                                               ; preds = %49, %45
  %56 = phi ptr [ %54, %49 ], [ %46, %45 ]
  %57 = getelementptr inbounds i8, ptr %56, i64 -8
  %58 = load ptr, ptr %57, align 8
  %59 = getelementptr inbounds i8, ptr %1, i64 16
  %60 = load ptr, ptr %59, align 8
  %61 = load ptr, ptr %40, align 8
  %62 = ptrtoint ptr %60 to i64
  %63 = ptrtoint ptr %61 to i64
  %64 = sub i64 %62, %63
  invoke void @_ZN4Json5Value14setOffsetLimitEl(ptr noundef nonnull align 8 dereferenceable(40) %58, i64 noundef %64)
          to label %65 unwind label %6

65:                                               ; preds = %55, %5
  call void @_ZN4Json5ValueD1Ev(ptr noundef nonnull align 8 dereferenceable(40) %3) #25
  ret i1 %4
}